target datalayout = "e-m:e-p270:32:32-p271:32:32-p272:64:64-i64:64-i128:128-f80:128-n8:16:32:64-S128"
target triple = "x86_64-pc-linux-gnu"

%struct.rb_data_type_struct = type { ptr, %struct.anon.12, ptr, ptr, i64 }
%struct.anon.12 = type { ptr, ptr, ptr, ptr, [1 x ptr] }
%struct.rb_code_location_struct = type { %struct.rb_code_position_struct, %struct.rb_code_position_struct }
%struct.rb_code_position_struct = type { i32, i32 }
%struct.ASTNodeData = type { i64, ptr }
%struct.RNode = type { i64, %struct.rb_code_location_struct, i32 }

@rb_node_type = internal constant %struct.rb_data_type_struct { ptr @.str.24, %struct.anon.12 { ptr @node_gc_mark, ptr inttoptr (i64 -1 to ptr), ptr @node_memsize, ptr null, [1 x ptr] zeroinitializer }, ptr null, ptr null, i64 1 }, align 8

; Function Attrs: inlinehint nounwind sspstrong willreturn memory(none) uwtable
define internal i64 @RB_INT2FIX(i64 noundef %0) #3 {
  %2 = alloca i64, align 8
  %3 = alloca i64, align 8
  %4 = alloca i64, align 8
  %5 = alloca i64, align 8
  %6 = alloca i64, align 8
  %7 = alloca i64, align 8
  store i64 %0, ptr %2, align 8, !tbaa !12
  call void @llvm.lifetime.start.p0(i64 8, ptr %3) #16
  %8 = load i64, ptr %2, align 8, !tbaa !12
  store i64 %8, ptr %3, align 8, !tbaa !12
  call void @llvm.lifetime.start.p0(i64 8, ptr %4) #16
  %9 = load i64, ptr %3, align 8, !tbaa !12
  %10 = shl i64 %9, 1
  %11 = add i64 %10, 1
  store i64 %11, ptr %4, align 8, !tbaa !12
  call void @llvm.lifetime.start.p0(i64 8, ptr %5) #16
  %12 = load i64, ptr %4, align 8, !tbaa !12
  store i64 %12, ptr %5, align 8, !tbaa !12
  call void @llvm.lifetime.start.p0(i64 8, ptr %6) #16
  %13 = load i64, ptr %5, align 8, !tbaa !12
  store i64 %13, ptr %6, align 8, !tbaa !12
  call void @llvm.lifetime.start.p0(i64 8, ptr %7) #16
  %14 = load i64, ptr %6, align 8, !tbaa !12
  store i64 %14, ptr %7, align 8, !tbaa !12
  %15 = load i64, ptr %7, align 8, !tbaa !12
  call void @llvm.lifetime.end.p0(i64 8, ptr %7) #16
  call void @llvm.lifetime.end.p0(i64 8, ptr %6) #16
  call void @llvm.lifetime.end.p0(i64 8, ptr %5) #16
  call void @llvm.lifetime.end.p0(i64 8, ptr %4) #16
  call void @llvm.lifetime.end.p0(i64 8, ptr %3) #16
  ret i64 %15
}

; Function Attrs: inlinehint nounwind sspstrong uwtable
define internal i64 @rb_int2num_inline(i32 noundef %0) #5 {
  %2 = alloca i64, align 8
  %3 = alloca i32, align 4
  store i32 %0, ptr %3, align 4, !tbaa !16
  %4 = load i32, ptr %3, align 4, !tbaa !16
  %5 = sext i32 %4 to i64
  %6 = icmp slt i64 %5, 4611686018427387904
  br i1 %6, label %7, label %15

7:                                                ; preds = %1
  %8 = load i32, ptr %3, align 4, !tbaa !16
  %9 = sext i32 %8 to i64
  %10 = icmp sge i64 %9, -4611686018427387904
  br i1 %10, label %11, label %15

11:                                               ; preds = %7
  %12 = load i32, ptr %3, align 4, !tbaa !16
  %13 = sext i32 %12 to i64
  %14 = call i64 @RB_INT2FIX(i64 noundef %13) #19
  store i64 %14, ptr %2, align 8
  br label %19

15:                                               ; preds = %7, %1
  %16 = load i32, ptr %3, align 4, !tbaa !16
  %17 = sext i32 %16 to i64
  %18 = call i64 @rb_int2big(i64 noundef %17)
  store i64 %18, ptr %2, align 8
  br label %19

19:                                               ; preds = %15, %11
  %20 = load i64, ptr %2, align 8
  ret i64 %20
}

; Function Attrs: nounwind sspstrong uwtable
define internal i64 @ast_node_first_column(ptr noundef %0, i64 noundef %1) #0 {
  %3 = alloca ptr, align 8
  %4 = alloca i64, align 8
  %5 = alloca ptr, align 8
  store ptr %0, ptr %3, align 8, !tbaa !7
  store i64 %1, ptr %4, align 8, !tbaa !12
  call void @llvm.lifetime.start.p0(i64 8, ptr %5) #16
  %6 = load i64, ptr %4, align 8, !tbaa !12
  %7 = call ptr @rb_check_typeddata(i64 noundef %6, ptr noundef @rb_node_type)
  store ptr %7, ptr %5, align 8, !tbaa !44
  %8 = load ptr, ptr %5, align 8, !tbaa !44
  %9 = getelementptr inbounds nuw %struct.ASTNodeData, ptr %8, i32 0, i32 1
  %10 = load ptr, ptr %9, align 8, !tbaa !46
  %11 = getelementptr inbounds nuw %struct.RNode, ptr %10, i32 0, i32 1
  %12 = getelementptr inbounds nuw %struct.rb_code_location_struct, ptr %11, i32 0, i32 0
  %13 = getelementptr inbounds nuw %struct.rb_code_position_struct, ptr %12, i32 0, i32 1
  %14 = load i32, ptr %13, align 4, !tbaa !51
  %15 = call i64 @rb_int2num_inline(i32 noundef %14)
  call void @llvm.lifetime.end.p0(i64 8, ptr %5) #16
  ret i64 %15
}